; Function Attrs: nounwind uwtable
define ptr @l_Std_SharedMutex_tryAtomicallyRead___rarg(ptr noundef %0, ptr noundef %1, ptr noundef %2, ptr noundef %3, ptr noundef %4) #0 {
  %6 = getelementptr inbounds nuw i8, ptr %0, i64 16
  %7 = load ptr, ptr %6, align 8, !tbaa !10
  %8 = ptrtoint ptr %7 to i64
  %9 = and i64 %8, 1
  %.not = icmp eq i64 %9, 0
  br i1 %.not, label %10, label %lean_inc.exit32

10:                                               ; preds = %5
  %.val.i = load i32, ptr %7, align 4, !tbaa !4
  %11 = icmp sgt i32 %.val.i, 0
  br i1 %11, label %12, label %14, !prof !9

12:                                               ; preds = %10
  %13 = add nuw i32 %.val.i, 1
  store i32 %13, ptr %7, align 4, !tbaa !4
  br label %lean_inc.exit32

14:                                               ; preds = %10
  %.not.i = icmp eq i32 %.val.i, 0
  br i1 %.not.i, label %lean_inc.exit32, label %15

15:                                               ; preds = %14
  tail call void @lean_inc_ref_cold(ptr noundef nonnull %7) #3
  br label %lean_inc.exit32

lean_inc.exit32:                                  ; preds = %15, %14, %12, %5
  %16 = getelementptr inbounds nuw i8, ptr %3, i64 16
  %17 = load ptr, ptr %16, align 8, !tbaa !10
  %18 = ptrtoint ptr %17 to i64
  %19 = and i64 %18, 1
  %.not51 = icmp eq i64 %19, 0
  br i1 %.not51, label %20, label %lean_inc.exit30

20:                                               ; preds = %lean_inc.exit32
  %.val.i33 = load i32, ptr %17, align 4, !tbaa !4
  %21 = icmp sgt i32 %.val.i33, 0
  br i1 %21, label %22, label %24, !prof !9

22:                                               ; preds = %20
  %23 = add nuw i32 %.val.i33, 1
  store i32 %23, ptr %17, align 4, !tbaa !4
  br label %26

24:                                               ; preds = %20
  %.not.i34 = icmp eq i32 %.val.i33, 0
  br i1 %.not.i34, label %lean_inc.exit30, label %25

25:                                               ; preds = %24
  tail call void @lean_inc_ref_cold(ptr noundef nonnull %17) #3
  %.val.i36.pr = load i32, ptr %17, align 4, !tbaa !4
  br label %26

26:                                               ; preds = %25, %22
  %.val.i36 = phi i32 [ %.val.i36.pr, %25 ], [ %23, %22 ]
  %27 = icmp sgt i32 %.val.i36, 0
  br i1 %27, label %28, label %30, !prof !14

28:                                               ; preds = %26
  %29 = add nuw i32 %.val.i36, 1
  store i32 %29, ptr %17, align 4, !tbaa !4
  br label %lean_inc.exit30

30:                                               ; preds = %26
  %.not.i37 = icmp eq i32 %.val.i36, 0
  br i1 %.not.i37, label %lean_inc.exit30, label %31

31:                                               ; preds = %30
  tail call void @lean_inc_ref_cold(ptr noundef nonnull %17) #3
  br label %lean_inc.exit30

lean_inc.exit30:                                  ; preds = %24, %31, %30, %28, %lean_inc.exit32
  tail call void @lean_inc_heartbeat() #3
  %32 = tail call noalias ptr @mi_malloc_small(i64 noundef 32) #3
  %33 = icmp eq ptr %32, null
  br i1 %33, label %34, label %lean_alloc_closure.exit

34:                                               ; preds = %lean_inc.exit30
  tail call void @lean_internal_panic_out_of_memory() #4
  unreachable

lean_alloc_closure.exit:                          ; preds = %lean_inc.exit30
  %35 = getelementptr inbounds nuw i8, ptr %32, i64 4
  store i32 1, ptr %32, align 4, !tbaa !4
  store i32 -184549344, ptr %35, align 4
  %36 = getelementptr inbounds nuw i8, ptr %32, i64 8
  store ptr @l_Std_BaseSharedMutex_tryRead___boxed, ptr %36, align 8, !tbaa !10
  %37 = getelementptr inbounds nuw i8, ptr %32, i64 16
  store i16 2, ptr %37, align 8, !tbaa !12
  %38 = getelementptr inbounds nuw i8, ptr %32, i64 18
  store i16 1, ptr %38, align 2, !tbaa !12
  %39 = getelementptr inbounds nuw i8, ptr %32, i64 24
  store ptr %17, ptr %39, align 8, !tbaa !10
  %40 = ptrtoint ptr %1 to i64
  %41 = and i64 %40, 1
  %.not52 = icmp eq i64 %41, 0
  br i1 %.not52, label %42, label %lean_inc.exit29

42:                                               ; preds = %lean_alloc_closure.exit
  %.val.i39 = load i32, ptr %1, align 4, !tbaa !4
  %43 = icmp sgt i32 %.val.i39, 0
  br i1 %43, label %44, label %46, !prof !9

44:                                               ; preds = %42
  %45 = add nuw i32 %.val.i39, 1
  store i32 %45, ptr %1, align 4, !tbaa !4
  br label %lean_inc.exit29

46:                                               ; preds = %42
  %.not.i40 = icmp eq i32 %.val.i39, 0
  br i1 %.not.i40, label %lean_inc.exit29, label %47

47:                                               ; preds = %46
  tail call void @lean_inc_ref_cold(ptr noundef nonnull %1) #3
  br label %lean_inc.exit29

lean_inc.exit29:                                  ; preds = %47, %46, %44, %lean_alloc_closure.exit
  %48 = tail call ptr @lean_apply_2(ptr noundef %1, ptr noundef nonnull inttoptr (i64 1 to ptr), ptr noundef nonnull %32) #3
  br i1 %.not, label %49, label %lean_inc.exit

49:                                               ; preds = %lean_inc.exit29
  %.val.i42 = load i32, ptr %7, align 4, !tbaa !4
  %50 = icmp sgt i32 %.val.i42, 0
  br i1 %50, label %51, label %53, !prof !9

51:                                               ; preds = %49
  %52 = add nuw i32 %.val.i42, 1
  store i32 %52, ptr %7, align 4, !tbaa !4
  br label %lean_inc.exit

53:                                               ; preds = %49
  %.not.i43 = icmp eq i32 %.val.i42, 0
  br i1 %.not.i43, label %lean_inc.exit, label %54

54:                                               ; preds = %53
  tail call void @lean_inc_ref_cold(ptr noundef nonnull %7) #3
  br label %lean_inc.exit

lean_inc.exit:                                    ; preds = %54, %53, %51, %lean_inc.exit29
  tail call void @lean_inc_heartbeat() #3
  %55 = tail call noalias ptr @mi_malloc_small(i64 noundef 80) #3
  %56 = icmp eq ptr %55, null
  br i1 %56, label %57, label %lean_alloc_closure.exit45

57:                                               ; preds = %lean_inc.exit
  tail call void @lean_internal_panic_out_of_memory() #4
  unreachable

lean_alloc_closure.exit45:                        ; preds = %lean_inc.exit
  %58 = getelementptr inbounds nuw i8, ptr %55, i64 4
  store i32 1, ptr %55, align 4, !tbaa !4
  store i32 -184549296, ptr %58, align 4
  %59 = getelementptr inbounds nuw i8, ptr %55, i64 8
  store ptr @l_Std_SharedMutex_tryAtomicallyRead___rarg___lambda__2___boxed, ptr %59, align 8, !tbaa !10
  %60 = getelementptr inbounds nuw i8, ptr %55, i64 16
  store i16 8, ptr %60, align 8, !tbaa !12
  %61 = getelementptr inbounds nuw i8, ptr %55, i64 18
  store i16 7, ptr %61, align 2, !tbaa !12
  %62 = getelementptr inbounds nuw i8, ptr %55, i64 24
  store ptr %0, ptr %62, align 8, !tbaa !10
  %63 = getelementptr inbounds nuw i8, ptr %55, i64 32
  store ptr %3, ptr %63, align 8, !tbaa !10
  %64 = getelementptr inbounds nuw i8, ptr %55, i64 40
  store ptr %1, ptr %64, align 8, !tbaa !10
  %65 = getelementptr inbounds nuw i8, ptr %55, i64 48
  store ptr %4, ptr %65, align 8, !tbaa !10
  %66 = getelementptr inbounds nuw i8, ptr %55, i64 56
  store ptr %7, ptr %66, align 8, !tbaa !10
  %67 = getelementptr inbounds nuw i8, ptr %55, i64 64
  store ptr %17, ptr %67, align 8, !tbaa !10
  %68 = getelementptr inbounds nuw i8, ptr %55, i64 72
  store ptr %2, ptr %68, align 8, !tbaa !10
  %69 = tail call ptr @lean_apply_4(ptr noundef %7, ptr noundef nonnull inttoptr (i64 1 to ptr), ptr noundef nonnull inttoptr (i64 1 to ptr), ptr noundef %48, ptr noundef nonnull %55) #3
  ret ptr %69
}